target datalayout = "e-m:e-p270:32:32-p271:32:32-p272:64:64-i64:64-i128:128-f80:128-n8:16:32:64-S128"
target triple = "x86_64-pc-linux-gnu"

%struct.jpeg_decompress_struct = type { ptr, ptr, ptr, ptr, i32, i32, ptr, i32, i32, i32, i32, i32, i32, i32, double, i32, i32, i32, i32, i32, i32, i32, i32, i32, i32, i32, i32, i32, i32, i32, i32, i32, i32, ptr, i32, i32, i32, i32, i32, ptr, [4 x ptr], [4 x ptr], [4 x ptr], i32, ptr, i32, i32, [16 x i8], [16 x i8], [16 x i8], i32, i32, i8, i8, i8, i16, i16, i32, i8, i32, ptr, i32, i32, i32, i32, ptr, i32, [4 x ptr], i32, i32, i32, [10 x i32], i32, i32, i32, i32, i32, ptr, ptr, ptr, ptr, ptr, ptr, ptr, ptr, ptr, ptr, ptr }
%struct.jpeg_error_mgr = type { ptr, ptr, ptr, ptr, ptr, i32, %union.anon, i32, i64, ptr, i32, ptr, i32, i32 }
%union.anon = type { [8 x i32], [48 x i8] }
%struct.djpeg_dest_struct = type { ptr, ptr, ptr, ptr, ptr, ptr, ptr, ptr, i32 }

; Function Attrs: nounwind uwtable
define internal void @finish_output_tga(ptr noundef %0, ptr noundef %1) #0 {
  %3 = alloca ptr, align 8
  %4 = alloca ptr, align 8
  store ptr %0, ptr %3, align 8, !tbaa !4
  store ptr %1, ptr %4, align 8, !tbaa !55
  %5 = load ptr, ptr %4, align 8, !tbaa !55
  %6 = getelementptr inbounds nuw %struct.djpeg_dest_struct, ptr %5, i32 0, i32 4
  %7 = load ptr, ptr %6, align 8, !tbaa !68
  %8 = call i32 @fflush(ptr noundef %7)
  %9 = load ptr, ptr %4, align 8, !tbaa !55
  %10 = getelementptr inbounds nuw %struct.djpeg_dest_struct, ptr %9, i32 0, i32 4
  %11 = load ptr, ptr %10, align 8, !tbaa !68
  %12 = call i32 @ferror(ptr noundef %11) #6
  %13 = icmp ne i32 %12, 0
  br i1 %13, label %14, label %25

14:                                               ; preds = %2
  %15 = load ptr, ptr %3, align 8, !tbaa !4
  %16 = getelementptr inbounds nuw %struct.jpeg_decompress_struct, ptr %15, i32 0, i32 0
  %17 = load ptr, ptr %16, align 8, !tbaa !33
  %18 = getelementptr inbounds nuw %struct.jpeg_error_mgr, ptr %17, i32 0, i32 5
  store i32 37, ptr %18, align 8, !tbaa !34
  %19 = load ptr, ptr %3, align 8, !tbaa !4
  %20 = getelementptr inbounds nuw %struct.jpeg_decompress_struct, ptr %19, i32 0, i32 0
  %21 = load ptr, ptr %20, align 8, !tbaa !33
  %22 = getelementptr inbounds nuw %struct.jpeg_error_mgr, ptr %21, i32 0, i32 0
  %23 = load ptr, ptr %22, align 8, !tbaa !38
  %24 = load ptr, ptr %3, align 8, !tbaa !4
  call void %23(ptr noundef %24)
  br label %25

25:                                               ; preds = %14, %2
  ret void
}